; ModuleID = 'source-C-CXX/5/2351.cpp'
source_filename = "source-C-CXX/5/2351.cpp"
target datalayout = "e-m:e-p270:32:32-p271:32:32-p272:64:64-i64:64-f80:128-n8:16:32:64-S128"
target triple = "x86_64-pc-linux-gnu"

%"class.std::ios_base::Init" = type { i8 }
%"class.std::basic_istream" = type { i32 (...)**, i64, %"class.std::basic_ios" }
%"class.std::basic_ios" = type { %"class.std::ios_base", %"class.std::basic_ostream"*, i8, i8, %"class.std::basic_streambuf"*, %"class.std::ctype"*, %"class.std::num_put"*, %"class.std::num_get"* }
%"class.std::ios_base" = type { i32 (...)**, i64, i64, i32, i32, i32, %"struct.std::ios_base::_Callback_list"*, %"struct.std::ios_base::_Words", [8 x %"struct.std::ios_base::_Words"], i32, %"struct.std::ios_base::_Words"*, %"class.std::locale" }
%"struct.std::ios_base::_Callback_list" = type { %"struct.std::ios_base::_Callback_list"*, void (i32, %"class.std::ios_base"*, i32)*, i32, i32 }
%"struct.std::ios_base::_Words" = type { i8*, i64 }
%"class.std::locale" = type { %"class.std::locale::_Impl"* }
%"class.std::locale::_Impl" = type { i32, %"class.std::locale::facet"**, i64, %"class.std::locale::facet"**, i8** }
%"class.std::locale::facet" = type <{ i32 (...)**, i32, [4 x i8] }>
%"class.std::basic_ostream" = type { i32 (...)**, %"class.std::basic_ios" }
%"class.std::basic_streambuf" = type { i32 (...)**, i8*, i8*, i8*, i8*, i8*, i8*, %"class.std::locale" }
%"class.std::ctype" = type <{ %"class.std::locale::facet.base", [4 x i8], %struct.__locale_struct*, i8, [7 x i8], i32*, i32*, i16*, i8, [256 x i8], [256 x i8], i8, [6 x i8] }>
%"class.std::locale::facet.base" = type <{ i32 (...)**, i32 }>
%struct.__locale_struct = type { [13 x %struct.__locale_data*], i16*, i32*, i32*, [13 x i8*] }
%struct.__locale_data = type opaque
%"class.std::num_put" = type { %"class.std::locale::facet.base", [4 x i8] }
%"class.std::num_get" = type { %"class.std::locale::facet.base", [4 x i8] }

@_ZStL8__ioinit = internal global %"class.std::ios_base::Init" zeroinitializer, align 1
@__dso_handle = external hidden global i8
@_ZSt3cin = external global %"class.std::basic_istream", align 8
@_ZSt4cout = external global %"class.std::basic_ostream", align 8
@llvm.global_ctors = appending global [1 x { i32, void ()*, i8* }] [{ i32, void ()*, i8* } { i32 65535, void ()* @_GLOBAL__sub_I_2351.cpp, i8* null }]

declare void @_ZNSt8ios_base4InitC1Ev(%"class.std::ios_base::Init"* nonnull align 1 dereferenceable(1)) unnamed_addr #0

; Function Attrs: nounwind
declare void @_ZNSt8ios_base4InitD1Ev(%"class.std::ios_base::Init"* nonnull align 1 dereferenceable(1)) unnamed_addr #1

; Function Attrs: nofree nounwind
declare i32 @__cxa_atexit(void (i8*)*, i8*, i8*) local_unnamed_addr #2

; Function Attrs: mustprogress norecurse sspstrong uwtable
define dso_local i32 @main() local_unnamed_addr #3 {
  %1 = alloca i32, align 4
  %2 = alloca i32, align 4
  %3 = alloca i32, align 4
  %4 = alloca [110 x [110 x i32]], align 16
  %5 = bitcast i32* %1 to i8*
  call void @llvm.lifetime.start.p0i8(i64 4, i8* nonnull %5) #8
  %6 = bitcast i32* %2 to i8*
  call void @llvm.lifetime.start.p0i8(i64 4, i8* nonnull %6) #8
  %7 = bitcast i32* %3 to i8*
  call void @llvm.lifetime.start.p0i8(i64 4, i8* nonnull %7) #8
  %8 = bitcast [110 x [110 x i32]]* %4 to i8*
  call void @llvm.lifetime.start.p0i8(i64 48400, i8* nonnull %8) #8
  call void @llvm.memset.p0i8.i64(i8* noundef nonnull align 16 dereferenceable(48400) %8, i8 0, i64 48400, i1 false)
  %9 = call nonnull align 8 dereferenceable(16) %"class.std::basic_istream"* @_ZNSirsERi(%"class.std::basic_istream"* nonnull align 8 dereferenceable(16) @_ZSt3cin, i32* nonnull align 4 dereferenceable(4) %1)
  %10 = load i32, i32* %1, align 4, !tbaa !5
  %11 = icmp slt i32 %10, 1
  br i1 %11, label %146, label %12

12:                                               ; preds = %0, %139
  %13 = phi i32 [ %143, %139 ], [ 1, %0 ]
  %14 = call nonnull align 8 dereferenceable(16) %"class.std::basic_istream"* @_ZNSirsERi(%"class.std::basic_istream"* nonnull align 8 dereferenceable(16) @_ZSt3cin, i32* nonnull align 4 dereferenceable(4) %2)
  %15 = call nonnull align 8 dereferenceable(16) %"class.std::basic_istream"* @_ZNSirsERi(%"class.std::basic_istream"* nonnull align 8 dereferenceable(16) %14, i32* nonnull align 4 dereferenceable(4) %3)
  %16 = load i32, i32* %2, align 4, !tbaa !5
  %17 = icmp slt i32 %16, 1
  br i1 %17, label %111, label %18

18:                                               ; preds = %12
  %19 = load i32, i32* %3, align 4, !tbaa !5
  %20 = icmp slt i32 %19, 1
  br i1 %20, label %21, label %34

21:                                               ; preds = %72, %18
  %22 = phi i32 [ %19, %18 ], [ %74, %72 ]
  %23 = phi i32 [ 0, %18 ], [ %75, %72 ]
  %24 = phi i32 [ %16, %18 ], [ %73, %72 ]
  %25 = sext i32 %22 to i64
  %26 = icmp sgt i32 %24, 2
  br i1 %26, label %27, label %111

27:                                               ; preds = %21
  %28 = zext i32 %24 to i64
  %29 = and i64 %28, 1
  %30 = icmp eq i32 %24, 3
  br i1 %30, label %99, label %31

31:                                               ; preds = %27
  %32 = add nsw i64 %28, -2
  %33 = and i64 %32, -2
  br label %79

34:                                               ; preds = %18, %72
  %35 = phi i32 [ %73, %72 ], [ %16, %18 ]
  %36 = phi i32 [ %74, %72 ], [ %19, %18 ]
  %37 = phi i64 [ %76, %72 ], [ 1, %18 ]
  %38 = phi i32 [ %75, %72 ], [ 0, %18 ]
  %39 = icmp slt i32 %36, 1
  br i1 %39, label %72, label %40

40:                                               ; preds = %34
  %41 = icmp eq i64 %37, 1
  br i1 %41, label %42, label %53

42:                                               ; preds = %40, %42
  %43 = phi i64 [ %49, %42 ], [ 1, %40 ]
  %44 = phi i32 [ %48, %42 ], [ %38, %40 ]
  %45 = getelementptr inbounds [110 x [110 x i32]], [110 x [110 x i32]]* %4, i64 0, i64 1, i64 %43
  %46 = call nonnull align 8 dereferenceable(16) %"class.std::basic_istream"* @_ZNSirsERi(%"class.std::basic_istream"* nonnull align 8 dereferenceable(16) @_ZSt3cin, i32* nonnull align 4 dereferenceable(4) %45)
  %47 = load i32, i32* %45, align 4, !tbaa !5
  %48 = add nsw i32 %47, %44
  %49 = add nuw nsw i64 %43, 1
  %50 = load i32, i32* %3, align 4, !tbaa !5
  %51 = sext i32 %50 to i64
  %52 = icmp slt i64 %43, %51
  br i1 %52, label %42, label %70, !llvm.loop !9

53:                                               ; preds = %40, %64
  %54 = phi i64 [ %66, %64 ], [ 1, %40 ]
  %55 = phi i32 [ %65, %64 ], [ %38, %40 ]
  %56 = getelementptr inbounds [110 x [110 x i32]], [110 x [110 x i32]]* %4, i64 0, i64 %37, i64 %54
  %57 = call nonnull align 8 dereferenceable(16) %"class.std::basic_istream"* @_ZNSirsERi(%"class.std::basic_istream"* nonnull align 8 dereferenceable(16) @_ZSt3cin, i32* nonnull align 4 dereferenceable(4) %56)
  %58 = load i32, i32* %2, align 4
  %59 = zext i32 %58 to i64
  %60 = icmp eq i64 %37, %59
  br i1 %60, label %61, label %64

61:                                               ; preds = %53
  %62 = load i32, i32* %56, align 4, !tbaa !5
  %63 = add nsw i32 %62, %55
  br label %64

64:                                               ; preds = %53, %61
  %65 = phi i32 [ %63, %61 ], [ %55, %53 ]
  %66 = add nuw nsw i64 %54, 1
  %67 = load i32, i32* %3, align 4, !tbaa !5
  %68 = sext i32 %67 to i64
  %69 = icmp slt i64 %54, %68
  br i1 %69, label %53, label %72, !llvm.loop !9

70:                                               ; preds = %42
  %71 = load i32, i32* %2, align 4, !tbaa !5
  br label %72

72:                                               ; preds = %64, %70, %34
  %73 = phi i32 [ %35, %34 ], [ %71, %70 ], [ %58, %64 ]
  %74 = phi i32 [ %36, %34 ], [ %50, %70 ], [ %67, %64 ]
  %75 = phi i32 [ %38, %34 ], [ %48, %70 ], [ %65, %64 ]
  %76 = add nuw nsw i64 %37, 1
  %77 = sext i32 %73 to i64
  %78 = icmp slt i64 %37, %77
  br i1 %78, label %34, label %21, !llvm.loop !11

79:                                               ; preds = %79, %31
  %80 = phi i64 [ 2, %31 ], [ %96, %79 ]
  %81 = phi i32 [ %23, %31 ], [ %95, %79 ]
  %82 = phi i64 [ %33, %31 ], [ %97, %79 ]
  %83 = getelementptr inbounds [110 x [110 x i32]], [110 x [110 x i32]]* %4, i64 0, i64 %80, i64 1
  %84 = load i32, i32* %83, align 4, !tbaa !5
  %85 = add nsw i32 %84, %81
  %86 = getelementptr inbounds [110 x [110 x i32]], [110 x [110 x i32]]* %4, i64 0, i64 %80, i64 %25
  %87 = load i32, i32* %86, align 4, !tbaa !5
  %88 = add nsw i32 %85, %87
  %89 = or i64 %80, 1
  %90 = getelementptr inbounds [110 x [110 x i32]], [110 x [110 x i32]]* %4, i64 0, i64 %89, i64 1
  %91 = load i32, i32* %90, align 4, !tbaa !5
  %92 = add nsw i32 %91, %88
  %93 = getelementptr inbounds [110 x [110 x i32]], [110 x [110 x i32]]* %4, i64 0, i64 %89, i64 %25
  %94 = load i32, i32* %93, align 4, !tbaa !5
  %95 = add nsw i32 %92, %94
  %96 = add nuw nsw i64 %80, 2
  %97 = add i64 %82, -2
  %98 = icmp eq i64 %97, 0
  br i1 %98, label %99, label %79, !llvm.loop !13

99:                                               ; preds = %79, %27
  %100 = phi i32 [ undef, %27 ], [ %95, %79 ]
  %101 = phi i64 [ 2, %27 ], [ %96, %79 ]
  %102 = phi i32 [ %23, %27 ], [ %95, %79 ]
  %103 = icmp eq i64 %29, 0
  br i1 %103, label %111, label %104

104:                                              ; preds = %99
  %105 = getelementptr inbounds [110 x [110 x i32]], [110 x [110 x i32]]* %4, i64 0, i64 %101, i64 1
  %106 = load i32, i32* %105, align 4, !tbaa !5
  %107 = add nsw i32 %106, %102
  %108 = getelementptr inbounds [110 x [110 x i32]], [110 x [110 x i32]]* %4, i64 0, i64 %101, i64 %25
  %109 = load i32, i32* %108, align 4, !tbaa !5
  %110 = add nsw i32 %107, %109
  br label %111

111:                                              ; preds = %104, %99, %12, %21
  %112 = phi i32 [ %23, %21 ], [ 0, %12 ], [ %100, %99 ], [ %110, %104 ]
  %113 = call nonnull align 8 dereferenceable(8) %"class.std::basic_ostream"* @_ZNSolsEi(%"class.std::basic_ostream"* nonnull align 8 dereferenceable(8) @_ZSt4cout, i32 %112)
  %114 = bitcast %"class.std::basic_ostream"* %113 to i8**
  %115 = load i8*, i8** %114, align 8, !tbaa !14
  %116 = getelementptr i8, i8* %115, i64 -24
  %117 = bitcast i8* %116 to i64*
  %118 = load i64, i64* %117, align 8
  %119 = bitcast %"class.std::basic_ostream"* %113 to i8*
  %120 = add nsw i64 %118, 240
  %121 = getelementptr inbounds i8, i8* %119, i64 %120
  %122 = bitcast i8* %121 to %"class.std::ctype"**
  %123 = load %"class.std::ctype"*, %"class.std::ctype"** %122, align 8, !tbaa !16
  %124 = icmp eq %"class.std::ctype"* %123, null
  br i1 %124, label %125, label %126

125:                                              ; preds = %111
  call void @_ZSt16__throw_bad_castv() #9
  unreachable

126:                                              ; preds = %111
  %127 = getelementptr inbounds %"class.std::ctype", %"class.std::ctype"* %123, i64 0, i32 8
  %128 = load i8, i8* %127, align 8, !tbaa !20
  %129 = icmp eq i8 %128, 0
  br i1 %129, label %133, label %130

130:                                              ; preds = %126
  %131 = getelementptr inbounds %"class.std::ctype", %"class.std::ctype"* %123, i64 0, i32 9, i64 10
  %132 = load i8, i8* %131, align 1, !tbaa !22
  br label %139

133:                                              ; preds = %126
  call void @_ZNKSt5ctypeIcE13_M_widen_initEv(%"class.std::ctype"* nonnull align 8 dereferenceable(570) %123)
  %134 = bitcast %"class.std::ctype"* %123 to i8 (%"class.std::ctype"*, i8)***
  %135 = load i8 (%"class.std::ctype"*, i8)**, i8 (%"class.std::ctype"*, i8)*** %134, align 8, !tbaa !14
  %136 = getelementptr inbounds i8 (%"class.std::ctype"*, i8)*, i8 (%"class.std::ctype"*, i8)** %135, i64 6
  %137 = load i8 (%"class.std::ctype"*, i8)*, i8 (%"class.std::ctype"*, i8)** %136, align 8
  %138 = call signext i8 %137(%"class.std::ctype"* nonnull align 8 dereferenceable(570) %123, i8 signext 10)
  br label %139

139:                                              ; preds = %130, %133
  %140 = phi i8 [ %132, %130 ], [ %138, %133 ]
  %141 = call nonnull align 8 dereferenceable(8) %"class.std::basic_ostream"* @_ZNSo3putEc(%"class.std::basic_ostream"* nonnull align 8 dereferenceable(8) %113, i8 signext %140)
  %142 = call nonnull align 8 dereferenceable(8) %"class.std::basic_ostream"* @_ZNSo5flushEv(%"class.std::basic_ostream"* nonnull align 8 dereferenceable(8) %141)
  %143 = add nuw nsw i32 %13, 1
  %144 = load i32, i32* %1, align 4, !tbaa !5
  %145 = icmp slt i32 %13, %144
  br i1 %145, label %12, label %146, !llvm.loop !23

146:                                              ; preds = %139, %0
  call void @llvm.lifetime.end.p0i8(i64 48400, i8* nonnull %8) #8
  call void @llvm.lifetime.end.p0i8(i64 4, i8* nonnull %7) #8
  call void @llvm.lifetime.end.p0i8(i64 4, i8* nonnull %6) #8
  call void @llvm.lifetime.end.p0i8(i64 4, i8* nonnull %5) #8
  ret i32 0
}

; Function Attrs: argmemonly mustprogress nofree nosync nounwind willreturn
declare void @llvm.lifetime.start.p0i8(i64 immarg, i8* nocapture) #4

; Function Attrs: argmemonly mustprogress nofree nounwind willreturn writeonly
declare void @llvm.memset.p0i8.i64(i8* nocapture writeonly, i8, i64, i1 immarg) #5

declare nonnull align 8 dereferenceable(16) %"class.std::basic_istream"* @_ZNSirsERi(%"class.std::basic_istream"* nonnull align 8 dereferenceable(16), i32* nonnull align 4 dereferenceable(4)) local_unnamed_addr #0

declare nonnull align 8 dereferenceable(8) %"class.std::basic_ostream"* @_ZNSolsEi(%"class.std::basic_ostream"* nonnull align 8 dereferenceable(8), i32) local_unnamed_addr #0

; Function Attrs: argmemonly mustprogress nofree nosync nounwind willreturn
declare void @llvm.lifetime.end.p0i8(i64 immarg, i8* nocapture) #4

declare nonnull align 8 dereferenceable(8) %"class.std::basic_ostream"* @_ZNSo3putEc(%"class.std::basic_ostream"* nonnull align 8 dereferenceable(8), i8 signext) local_unnamed_addr #0

declare nonnull align 8 dereferenceable(8) %"class.std::basic_ostream"* @_ZNSo5flushEv(%"class.std::basic_ostream"* nonnull align 8 dereferenceable(8)) local_unnamed_addr #0

; Function Attrs: noreturn
declare void @_ZSt16__throw_bad_castv() local_unnamed_addr #6

declare void @_ZNKSt5ctypeIcE13_M_widen_initEv(%"class.std::ctype"* nonnull align 8 dereferenceable(570)) local_unnamed_addr #0

; Function Attrs: sspstrong uwtable
define internal void @_GLOBAL__sub_I_2351.cpp() #7 section ".text.startup" {
  tail call void @_ZNSt8ios_base4InitC1Ev(%"class.std::ios_base::Init"* nonnull align 1 dereferenceable(1) @_ZStL8__ioinit)
  %1 = tail call i32 @__cxa_atexit(void (i8*)* bitcast (void (%"class.std::ios_base::Init"*)* @_ZNSt8ios_base4InitD1Ev to void (i8*)*), i8* getelementptr inbounds (%"class.std::ios_base::Init", %"class.std::ios_base::Init"* @_ZStL8__ioinit, i64 0, i32 0), i8* nonnull @__dso_handle) #8
  ret void
}


!llvm.module.flags = !{!0, !1, !2, !3}
!llvm.ident = !{!4}

!0 = !{i32 1, !"wchar_size", i32 4}
!1 = !{i32 7, !"PIC Level", i32 2}
!2 = !{i32 7, !"PIE Level", i32 2}
!3 = !{i32 7, !"uwtable", i32 1}
!4 = !{!"clang version 13.0.0"}
!5 = !{!6, !6, i64 0}
!6 = !{!"int", !7, i64 0}
!7 = !{!"omnipotent char", !8, i64 0}
!8 = !{!"Simple C++ TBAA"}
!9 = distinct !{!9, !10}
!10 = !{!"llvm.loop.mustprogress"}
!11 = distinct !{!11, !10, !12}
!12 = !{!"llvm.loop.unswitch.partial.disable"}
!13 = distinct !{!13, !10}
!14 = !{!15, !15, i64 0}
!15 = !{!"vtable pointer", !8, i64 0}
!16 = !{!17, !18, i64 240}
!17 = !{!"_ZTSSt9basic_iosIcSt11char_traitsIcEE", !18, i64 216, !7, i64 224, !19, i64 225, !18, i64 232, !18, i64 240, !18, i64 248, !18, i64 256}
!18 = !{!"any pointer", !7, i64 0}
!19 = !{!"bool", !7, i64 0}
!20 = !{!21, !7, i64 56}
!21 = !{!"_ZTSSt5ctypeIcE", !18, i64 16, !19, i64 24, !18, i64 32, !18, i64 40, !18, i64 48, !7, i64 56, !7, i64 57, !7, i64 313, !7, i64 569}
!22 = !{!7, !7, i64 0}
!23 = distinct !{!23, !10}
